target datalayout = "e-m:e-p270:32:32-p271:32:32-p272:64:64-i64:64-i128:128-f80:128-n8:16:32:64-S128"
target triple = "x86_64-pc-linux-gnu"

%struct.instanceLink = type { i32, i32, i32, ptr, ptr, i64, i64, i64, i64, i64, i64, i64, i64 }
%struct.redisAsyncContext = type { %struct.redisContext, i32, ptr, ptr, ptr, %struct.anon.2, ptr, ptr, ptr, %struct.redisCallbackList, ptr, i64, %struct.anon.3, ptr }
%struct.redisContext = type { ptr, i32, [128 x i8], i32, i32, ptr, ptr, i32, ptr, ptr, %struct.anon.0, %struct.anon.1, ptr, i64, ptr, ptr, ptr, ptr }
%struct.anon.0 = type { ptr, ptr, i32 }
%struct.anon.1 = type { ptr }
%struct.anon.2 = type { ptr, ptr, ptr, ptr, ptr, ptr, ptr }
%struct.redisCallbackList = type { ptr, ptr }
%struct.anon.3 = type { %struct.redisCallbackList, ptr, ptr, i32 }

; Function Attrs: nounwind uwtable
define dso_local void @instanceLinkCloseConnection(ptr noundef %0, ptr noundef %1) #0 {
  %3 = alloca ptr, align 8
  %4 = alloca ptr, align 8
  store ptr %0, ptr %3, align 8, !tbaa !129
  store ptr %1, ptr %4, align 8, !tbaa !145
  %5 = load ptr, ptr %4, align 8, !tbaa !145
  %6 = icmp eq ptr %5, null
  br i1 %6, label %7, label %8

7:                                                ; preds = %2
  br label %34

8:                                                ; preds = %2
  %9 = load ptr, ptr %3, align 8, !tbaa !129
  %10 = getelementptr inbounds nuw %struct.instanceLink, ptr %9, i32 0, i32 3
  %11 = load ptr, ptr %10, align 8, !tbaa !135
  %12 = load ptr, ptr %4, align 8, !tbaa !145
  %13 = icmp eq ptr %11, %12
  br i1 %13, label %14, label %19

14:                                               ; preds = %8
  %15 = load ptr, ptr %3, align 8, !tbaa !129
  %16 = getelementptr inbounds nuw %struct.instanceLink, ptr %15, i32 0, i32 3
  store ptr null, ptr %16, align 8, !tbaa !135
  %17 = load ptr, ptr %3, align 8, !tbaa !129
  %18 = getelementptr inbounds nuw %struct.instanceLink, ptr %17, i32 0, i32 2
  store i32 0, ptr %18, align 8, !tbaa !134
  br label %19

19:                                               ; preds = %14, %8
  %20 = load ptr, ptr %3, align 8, !tbaa !129
  %21 = getelementptr inbounds nuw %struct.instanceLink, ptr %20, i32 0, i32 4
  %22 = load ptr, ptr %21, align 8, !tbaa !136
  %23 = load ptr, ptr %4, align 8, !tbaa !145
  %24 = icmp eq ptr %22, %23
  br i1 %24, label %25, label %28

25:                                               ; preds = %19
  %26 = load ptr, ptr %3, align 8, !tbaa !129
  %27 = getelementptr inbounds nuw %struct.instanceLink, ptr %26, i32 0, i32 4
  store ptr null, ptr %27, align 8, !tbaa !136
  br label %28

28:                                               ; preds = %25, %19
  %29 = load ptr, ptr %4, align 8, !tbaa !145
  %30 = getelementptr inbounds nuw %struct.redisAsyncContext, ptr %29, i32 0, i32 3
  store ptr null, ptr %30, align 8, !tbaa !146
  %31 = load ptr, ptr %3, align 8, !tbaa !129
  %32 = getelementptr inbounds nuw %struct.instanceLink, ptr %31, i32 0, i32 1
  store i32 1, ptr %32, align 4, !tbaa !133
  %33 = load ptr, ptr %4, align 8, !tbaa !145
  call void @redisAsyncFree(ptr noundef %33)
  br label %34

34:                                               ; preds = %28, %7
  ret void
}