; Function Attrs: nounwind uwtable
define dso_local void @instanceLinkCloseConnection(ptr noundef captures(none) %0, ptr noundef %1) local_unnamed_addr #0 {
  %3 = icmp eq ptr %1, null
  br i1 %3, label %18, label %4

4:                                                ; preds = %2
  %5 = getelementptr inbounds nuw i8, ptr %0, i64 16
  %6 = load ptr, ptr %5, align 8, !tbaa !124
  %7 = icmp eq ptr %6, %1
  br i1 %7, label %8, label %10

8:                                                ; preds = %4
  store ptr null, ptr %5, align 8, !tbaa !124
  %9 = getelementptr inbounds nuw i8, ptr %0, i64 8
  store i32 0, ptr %9, align 8, !tbaa !118
  br label %10

10:                                               ; preds = %8, %4
  %11 = getelementptr inbounds nuw i8, ptr %0, i64 24
  %12 = load ptr, ptr %11, align 8, !tbaa !125
  %13 = icmp eq ptr %12, %1
  br i1 %13, label %14, label %15

14:                                               ; preds = %10
  store ptr null, ptr %11, align 8, !tbaa !125
  br label %15

15:                                               ; preds = %14, %10
  %16 = getelementptr inbounds nuw i8, ptr %1, i64 288
  store ptr null, ptr %16, align 8, !tbaa !126
  %17 = getelementptr inbounds nuw i8, ptr %0, i64 4
  store i32 1, ptr %17, align 4, !tbaa !117
  tail call void @redisAsyncFree(ptr noundef nonnull %1) #30
  br label %18

18:                                               ; preds = %2, %15
  ret void
}